; Function Attrs: mustprogress uwtable
define hidden void @_ZN11ast_pp_util7collectEjPKP4expr(ptr noundef nonnull align 8 dereferenceable(1232) %this, i32 noundef %n, ptr nocapture noundef readonly %es) local_unnamed_addr #3 align 2 {
entry:
  %cmp3.not = icmp eq i32 %n, 0
  br i1 %cmp3.not, label %for.end, label %for.body.lr.ph

for.body.lr.ph:                                   ; preds = %entry
  %coll = getelementptr inbounds i8, ptr %this, i64 768
  %wide.trip.count = zext i32 %n to i64
  br label %for.body

for.body:                                         ; preds = %for.body.lr.ph, %for.body
  %indvars.iv = phi i64 [ 0, %for.body.lr.ph ], [ %indvars.iv.next, %for.body ]
  %arrayidx = getelementptr inbounds ptr, ptr %es, i64 %indvars.iv
  %0 = load ptr, ptr %arrayidx, align 8
  tail call void @_ZN14decl_collector5visitEP3ast(ptr noundef nonnull align 8 dereferenceable(464) %coll, ptr noundef %0)
  %indvars.iv.next = add nuw nsw i64 %indvars.iv, 1
  %exitcond.not = icmp eq i64 %indvars.iv.next, %wide.trip.count
  br i1 %exitcond.not, label %for.end, label %for.body, !llvm.loop !4

for.end:                                          ; preds = %for.body, %entry
  ret void
}